target datalayout = "e-m:e-p270:32:32-p271:32:32-p272:64:64-i64:64-i128:128-f80:128-n8:16:32:64-S128"
target triple = "x86_64-pc-linux-gnu"

%struct._zend_array = type { %struct._zend_refcounted_h, %union.anon.0, i32, %union.anon.1, i32, i32, i32, i32, i64, ptr }
%struct._zend_refcounted_h = type { i32, %union.anon }
%union.anon = type { i32 }
%union.anon.0 = type { i32 }
%union.anon.1 = type { ptr }
%struct._zend_executor_globals = type { %struct._zval_struct, %struct._zval_struct, [32 x ptr], ptr, ptr, %struct._zend_array, %struct._zend_array, ptr, i32, i32, ptr, ptr, ptr, ptr, ptr, ptr, i64, ptr, ptr, i32, i32, i64, i32, i32, i32, i8, i8, %struct.zend_atomic_bool_s, %struct.zend_atomic_bool_s, ptr, i64, ptr, ptr, %struct._zend_array, %struct._zend_array, i32, i8, %struct._zval_struct, %struct._zval_struct, %struct._zend_stack, %struct._zend_stack, %struct._zend_stack, ptr, i32, i32, i64, ptr, ptr, ptr, %struct._zend_objects_store, ptr, ptr, ptr, [3 x %struct._zend_op], ptr, i8, i8, i64, i32, i32, ptr, [16 x %struct._HashTableIterator], ptr, %union._zend_function, %struct._zend_op, %struct._zend_array, i64, %struct.zend_get_gc_buffer, ptr, ptr, ptr, i64, i8, i32, ptr, ptr, i64, %struct._zend_call_stack, i64, i64, [6 x ptr] }
%struct.zend_atomic_bool_s = type { i8 }
%struct._zval_struct = type { %union._zend_value, %union.anon.3, %union.anon.6 }
%union._zend_value = type { i64 }
%union.anon.3 = type { i32 }
%union.anon.6 = type { i32 }
%struct._zend_stack = type { i32, i32, i32, ptr }
%struct._zend_objects_store = type { ptr, i32, i32, i32 }
%struct._HashTableIterator = type { ptr, i32, i32 }
%union._zend_function = type { %struct._zend_op_array }
%struct._zend_op_array = type { i8, [3 x i8], i32, ptr, ptr, ptr, i32, i32, ptr, ptr, ptr, ptr, i32, i32, i32, i32, ptr, ptr, ptr, ptr, ptr, i32, i32, ptr, ptr, ptr, i32, i32, i32, i32, ptr, ptr, [6 x ptr] }
%struct._zend_op = type { ptr, %union._znode_op, %union._znode_op, %union._znode_op, i32, i32, i8, i8, i8, i8 }
%union._znode_op = type { i32 }
%struct.zend_get_gc_buffer = type { ptr, ptr, ptr }
%struct._zend_call_stack = type { ptr, i64 }
%struct._Bucket = type { %struct._zval_struct, i64, ptr }
%struct.anon = type { i8, i8, i8, i8 }

@executor_globals = external global %struct._zend_executor_globals, align 8

; Function Attrs: nounwind uwtable
define i32 @zend_hash_iterator_pos(i32 noundef %0, ptr noundef %1) #0 {
  %3 = alloca ptr, align 8
  %4 = alloca ptr, align 8
  %5 = alloca ptr, align 8
  %6 = alloca i32, align 4
  %7 = alloca i1, align 1
  %8 = alloca i32, align 4
  %9 = alloca ptr, align 8
  %10 = alloca ptr, align 8
  %11 = alloca i32, align 4
  %12 = alloca ptr, align 8
  %13 = alloca ptr, align 8
  %14 = alloca i32, align 4
  %15 = alloca ptr, align 8
  %16 = alloca ptr, align 8
  store i32 %0, ptr %14, align 4
  store ptr %1, ptr %15, align 8
  %17 = load ptr, ptr getelementptr inbounds (%struct._zend_executor_globals, ptr @executor_globals, i32 0, i32 60), align 8
  %18 = load i32, ptr %14, align 4
  %19 = zext i32 %18 to i64
  %20 = getelementptr inbounds %struct._HashTableIterator, ptr %17, i64 %19
  store ptr %20, ptr %16, align 8
  %21 = load i32, ptr %14, align 4
  %22 = icmp ne i32 %21, -1
  call void @llvm.assume(i1 %22)
  %23 = load ptr, ptr %16, align 8
  %24 = getelementptr inbounds %struct._HashTableIterator, ptr %23, i32 0, i32 0
  %25 = load ptr, ptr %24, align 8
  %26 = load ptr, ptr %15, align 8
  %27 = icmp ne ptr %25, %26
  %28 = xor i1 %27, true
  %29 = xor i1 %28, true
  %30 = zext i1 %29 to i32
  %31 = sext i32 %30 to i64
  %32 = icmp ne i64 %31, 0
  br i1 %32, label %33, label %274

33:                                               ; preds = %2
  %34 = load i32, ptr %14, align 4
  %35 = load ptr, ptr %15, align 8
  store i32 %34, ptr %8, align 4
  store ptr %35, ptr %9, align 8
  %36 = load ptr, ptr getelementptr inbounds (%struct._zend_executor_globals, ptr @executor_globals, i32 0, i32 60), align 8
  %37 = load i32, ptr %8, align 4
  %38 = zext i32 %37 to i64
  %39 = getelementptr inbounds %struct._HashTableIterator, ptr %36, i64 %38
  store ptr %39, ptr %10, align 8
  %40 = load ptr, ptr %10, align 8
  %41 = getelementptr inbounds %struct._HashTableIterator, ptr %40, i32 0, i32 2
  %42 = load i32, ptr %41, align 4
  store i32 %42, ptr %11, align 4
  %43 = load i32, ptr %11, align 4
  %44 = load i32, ptr %8, align 4
  %45 = icmp ne i32 %43, %44
  br i1 %45, label %46, label %125

46:                                               ; preds = %33
  br label %47

47:                                               ; preds = %119, %46
  %48 = load i32, ptr %11, align 4
  %49 = load i32, ptr %8, align 4
  %50 = icmp ne i32 %48, %49
  br i1 %50, label %51, label %123

51:                                               ; preds = %47
  %52 = load ptr, ptr getelementptr inbounds (%struct._zend_executor_globals, ptr @executor_globals, i32 0, i32 60), align 8
  %53 = load i32, ptr %11, align 4
  %54 = zext i32 %53 to i64
  %55 = getelementptr inbounds %struct._HashTableIterator, ptr %52, i64 %54
  store ptr %55, ptr %12, align 8
  %56 = load ptr, ptr %12, align 8
  %57 = load ptr, ptr %56, align 8
  %58 = load ptr, ptr %9, align 8
  %59 = icmp eq ptr %57, %58
  br i1 %59, label %60, label %119

60:                                               ; preds = %51
  %61 = load ptr, ptr %10, align 8
  %62 = load ptr, ptr %61, align 8
  %63 = icmp ne ptr %62, null
  br i1 %63, label %64, label %90

64:                                               ; preds = %60
  %65 = load ptr, ptr %10, align 8
  %66 = load ptr, ptr %65, align 8
  %67 = icmp ne ptr %66, inttoptr (i64 -1 to ptr)
  br i1 %67, label %68, label %90

68:                                               ; preds = %64
  %69 = load ptr, ptr %10, align 8
  %70 = load ptr, ptr %69, align 8
  %71 = getelementptr inbounds %struct._zend_array, ptr %70, i32 0, i32 1
  %72 = getelementptr inbounds %struct.anon, ptr %71, i32 0, i32 2
  %73 = load i8, ptr %72, align 2
  %74 = zext i8 %73 to i32
  %75 = icmp eq i32 %74, 255
  %76 = xor i1 %75, true
  br i1 %76, label %77, label %90

77:                                               ; preds = %68
  %78 = load ptr, ptr %10, align 8
  %79 = load ptr, ptr %78, align 8
  %80 = getelementptr inbounds %struct._zend_array, ptr %79, i32 0, i32 1
  %81 = getelementptr inbounds %struct.anon, ptr %80, i32 0, i32 2
  %82 = load i8, ptr %81, align 2
  %83 = zext i8 %82 to i32
  %84 = sub nsw i32 %83, 1
  %85 = trunc i32 %84 to i8
  %86 = load ptr, ptr %10, align 8
  %87 = load ptr, ptr %86, align 8
  %88 = getelementptr inbounds %struct._zend_array, ptr %87, i32 0, i32 1
  %89 = getelementptr inbounds %struct.anon, ptr %88, i32 0, i32 2
  store i8 %85, ptr %89, align 2
  br label %90

90:                                               ; preds = %77, %68, %64, %60
  %91 = load ptr, ptr %9, align 8
  %92 = getelementptr inbounds %struct._zend_array, ptr %91, i32 0, i32 1
  %93 = getelementptr inbounds %struct.anon, ptr %92, i32 0, i32 2
  %94 = load i8, ptr %93, align 2
  %95 = zext i8 %94 to i32
  %96 = icmp eq i32 %95, 255
  %97 = xor i1 %96, true
  br i1 %97, label %98, label %109

98:                                               ; preds = %90
  %99 = load ptr, ptr %9, align 8
  %100 = getelementptr inbounds %struct._zend_array, ptr %99, i32 0, i32 1
  %101 = getelementptr inbounds %struct.anon, ptr %100, i32 0, i32 2
  %102 = load i8, ptr %101, align 2
  %103 = zext i8 %102 to i32
  %104 = add nsw i32 %103, 1
  %105 = trunc i32 %104 to i8
  %106 = load ptr, ptr %9, align 8
  %107 = getelementptr inbounds %struct._zend_array, ptr %106, i32 0, i32 1
  %108 = getelementptr inbounds %struct.anon, ptr %107, i32 0, i32 2
  store i8 %105, ptr %108, align 2
  br label %109

109:                                              ; preds = %98, %90
  %110 = load ptr, ptr %12, align 8
  %111 = load ptr, ptr %110, align 8
  %112 = load ptr, ptr %10, align 8
  store ptr %111, ptr %112, align 8
  %113 = load ptr, ptr %12, align 8
  %114 = getelementptr inbounds %struct._HashTableIterator, ptr %113, i32 0, i32 1
  %115 = load i32, ptr %114, align 8
  %116 = load ptr, ptr %10, align 8
  %117 = getelementptr inbounds %struct._HashTableIterator, ptr %116, i32 0, i32 1
  store i32 %115, ptr %117, align 8
  %118 = load i32, ptr %8, align 4
  call void @zend_hash_remove_iterator_copies(i32 noundef %118)
  store i1 true, ptr %7, align 1
  br label %126

119:                                              ; preds = %51
  %120 = load ptr, ptr %12, align 8
  %121 = getelementptr inbounds %struct._HashTableIterator, ptr %120, i32 0, i32 2
  %122 = load i32, ptr %121, align 4
  store i32 %122, ptr %11, align 4
  br label %47

123:                                              ; preds = %47
  %124 = load i32, ptr %8, align 4
  call void @zend_hash_remove_iterator_copies(i32 noundef %124)
  br label %125

125:                                              ; preds = %123, %33
  store i1 false, ptr %7, align 1
  br label %126

126:                                              ; preds = %125, %109
  %127 = load i1, ptr %7, align 1
  br i1 %127, label %274, label %128

128:                                              ; preds = %126
  %129 = load ptr, ptr %16, align 8
  %130 = getelementptr inbounds %struct._HashTableIterator, ptr %129, i32 0, i32 0
  %131 = load ptr, ptr %130, align 8
  %132 = icmp ne ptr %131, null
  %133 = xor i1 %132, true
  %134 = xor i1 %133, true
  %135 = zext i1 %134 to i32
  %136 = sext i32 %135 to i64
  %137 = icmp ne i64 %136, 0
  br i1 %137, label %138, label %180

138:                                              ; preds = %128
  %139 = load ptr, ptr %16, align 8
  %140 = getelementptr inbounds %struct._HashTableIterator, ptr %139, i32 0, i32 0
  %141 = load ptr, ptr %140, align 8
  %142 = icmp ne ptr %141, inttoptr (i64 -1 to ptr)
  %143 = xor i1 %142, true
  %144 = xor i1 %143, true
  %145 = zext i1 %144 to i32
  %146 = sext i32 %145 to i64
  %147 = icmp ne i64 %146, 0
  br i1 %147, label %148, label %180

148:                                              ; preds = %138
  %149 = load ptr, ptr %16, align 8
  %150 = getelementptr inbounds %struct._HashTableIterator, ptr %149, i32 0, i32 0
  %151 = load ptr, ptr %150, align 8
  %152 = getelementptr inbounds %struct._zend_array, ptr %151, i32 0, i32 1
  %153 = getelementptr inbounds %struct.anon, ptr %152, i32 0, i32 2
  %154 = load i8, ptr %153, align 2
  %155 = zext i8 %154 to i32
  %156 = icmp eq i32 %155, 255
  %157 = xor i1 %156, true
  %158 = xor i1 %157, true
  %159 = xor i1 %158, true
  %160 = zext i1 %159 to i32
  %161 = sext i32 %160 to i64
  %162 = icmp ne i64 %161, 0
  br i1 %162, label %163, label %180

163:                                              ; preds = %148
  br label %164

164:                                              ; preds = %163
  %165 = load ptr, ptr %16, align 8
  %166 = getelementptr inbounds %struct._HashTableIterator, ptr %165, i32 0, i32 0
  %167 = load ptr, ptr %166, align 8
  %168 = getelementptr inbounds %struct._zend_array, ptr %167, i32 0, i32 1
  %169 = getelementptr inbounds %struct.anon, ptr %168, i32 0, i32 2
  %170 = load i8, ptr %169, align 2
  %171 = zext i8 %170 to i32
  %172 = sub nsw i32 %171, 1
  %173 = trunc i32 %172 to i8
  %174 = load ptr, ptr %16, align 8
  %175 = getelementptr inbounds %struct._HashTableIterator, ptr %174, i32 0, i32 0
  %176 = load ptr, ptr %175, align 8
  %177 = getelementptr inbounds %struct._zend_array, ptr %176, i32 0, i32 1
  %178 = getelementptr inbounds %struct.anon, ptr %177, i32 0, i32 2
  store i8 %173, ptr %178, align 2
  br label %179

179:                                              ; preds = %164
  br label %180

180:                                              ; preds = %179, %148, %138, %128
  %181 = load ptr, ptr %15, align 8
  %182 = getelementptr inbounds %struct._zend_array, ptr %181, i32 0, i32 1
  %183 = getelementptr inbounds %struct.anon, ptr %182, i32 0, i32 2
  %184 = load i8, ptr %183, align 2
  %185 = zext i8 %184 to i32
  %186 = icmp eq i32 %185, 255
  %187 = xor i1 %186, true
  %188 = xor i1 %187, true
  %189 = xor i1 %188, true
  %190 = zext i1 %189 to i32
  %191 = sext i32 %190 to i64
  %192 = icmp ne i64 %191, 0
  br i1 %192, label %193, label %206

193:                                              ; preds = %180
  br label %194

194:                                              ; preds = %193
  %195 = load ptr, ptr %15, align 8
  %196 = getelementptr inbounds %struct._zend_array, ptr %195, i32 0, i32 1
  %197 = getelementptr inbounds %struct.anon, ptr %196, i32 0, i32 2
  %198 = load i8, ptr %197, align 2
  %199 = zext i8 %198 to i32
  %200 = add nsw i32 %199, 1
  %201 = trunc i32 %200 to i8
  %202 = load ptr, ptr %15, align 8
  %203 = getelementptr inbounds %struct._zend_array, ptr %202, i32 0, i32 1
  %204 = getelementptr inbounds %struct.anon, ptr %203, i32 0, i32 2
  store i8 %201, ptr %204, align 2
  br label %205

205:                                              ; preds = %194
  br label %206

206:                                              ; preds = %205, %180
  %207 = load ptr, ptr %15, align 8
  %208 = load ptr, ptr %16, align 8
  %209 = getelementptr inbounds %struct._HashTableIterator, ptr %208, i32 0, i32 0
  store ptr %207, ptr %209, align 8
  %210 = load ptr, ptr %15, align 8
  store ptr %210, ptr %13, align 8
  %211 = load ptr, ptr %13, align 8
  %212 = load ptr, ptr %13, align 8
  %213 = getelementptr inbounds %struct._zend_array, ptr %212, i32 0, i32 7
  %214 = load i32, ptr %213, align 4
  store ptr %211, ptr %5, align 8
  store i32 %214, ptr %6, align 4
  %215 = load ptr, ptr %5, align 8
  %216 = getelementptr inbounds %struct._zend_array, ptr %215, i32 0, i32 1
  %217 = load i32, ptr %216, align 8
  %218 = and i32 %217, 4
  %219 = icmp ne i32 %218, 0
  br i1 %219, label %220, label %245

220:                                              ; preds = %206
  br label %221

221:                                              ; preds = %241, %220
  %222 = load i32, ptr %6, align 4
  %223 = load ptr, ptr %5, align 8
  %224 = getelementptr inbounds %struct._zend_array, ptr %223, i32 0, i32 4
  %225 = load i32, ptr %224, align 8
  %226 = icmp ult i32 %222, %225
  br i1 %226, label %227, label %239

227:                                              ; preds = %221
  %228 = load ptr, ptr %5, align 8
  %229 = getelementptr inbounds %struct._zend_array, ptr %228, i32 0, i32 3
  %230 = load ptr, ptr %229, align 8
  %231 = load i32, ptr %6, align 4
  %232 = zext i32 %231 to i64
  %233 = getelementptr inbounds %struct._zval_struct, ptr %230, i64 %232
  store ptr %233, ptr %3, align 8
  %234 = load ptr, ptr %3, align 8
  %235 = getelementptr inbounds %struct._zval_struct, ptr %234, i32 0, i32 1
  %236 = load i8, ptr %235, align 8
  %237 = zext i8 %236 to i32
  %238 = icmp eq i32 %237, 0
  br label %239

239:                                              ; preds = %227, %221
  %240 = phi i1 [ false, %221 ], [ %238, %227 ]
  br i1 %240, label %241, label %244

241:                                              ; preds = %239
  %242 = load i32, ptr %6, align 4
  %243 = add i32 %242, 1
  store i32 %243, ptr %6, align 4
  br label %221

244:                                              ; preds = %239
  br label %270

245:                                              ; preds = %206
  br label %246

246:                                              ; preds = %266, %245
  %247 = load i32, ptr %6, align 4
  %248 = load ptr, ptr %5, align 8
  %249 = getelementptr inbounds %struct._zend_array, ptr %248, i32 0, i32 4
  %250 = load i32, ptr %249, align 8
  %251 = icmp ult i32 %247, %250
  br i1 %251, label %252, label %264

252:                                              ; preds = %246
  %253 = load ptr, ptr %5, align 8
  %254 = getelementptr inbounds %struct._zend_array, ptr %253, i32 0, i32 3
  %255 = load ptr, ptr %254, align 8
  %256 = load i32, ptr %6, align 4
  %257 = zext i32 %256 to i64
  %258 = getelementptr inbounds %struct._Bucket, ptr %255, i64 %257
  store ptr %258, ptr %4, align 8
  %259 = load ptr, ptr %4, align 8
  %260 = getelementptr inbounds %struct._zval_struct, ptr %259, i32 0, i32 1
  %261 = load i8, ptr %260, align 8
  %262 = zext i8 %261 to i32
  %263 = icmp eq i32 %262, 0
  br label %264

264:                                              ; preds = %252, %246
  %265 = phi i1 [ false, %246 ], [ %263, %252 ]
  br i1 %265, label %266, label %269

266:                                              ; preds = %264
  %267 = load i32, ptr %6, align 4
  %268 = add i32 %267, 1
  store i32 %268, ptr %6, align 4
  br label %246

269:                                              ; preds = %264
  br label %270

270:                                              ; preds = %269, %244
  %271 = load i32, ptr %6, align 4
  %272 = load ptr, ptr %16, align 8
  %273 = getelementptr inbounds %struct._HashTableIterator, ptr %272, i32 0, i32 1
  store i32 %271, ptr %273, align 8
  br label %274

274:                                              ; preds = %270, %126, %2
  %275 = load ptr, ptr %16, align 8
  %276 = getelementptr inbounds %struct._HashTableIterator, ptr %275, i32 0, i32 1
  %277 = load i32, ptr %276, align 8
  ret i32 %277
}