; Function Attrs: nofree nosync nounwind memory(readwrite, inaccessiblemem: write) uwtable
define i32 @zend_hash_iterator_pos(i32 noundef %0, ptr noundef %1) local_unnamed_addr #14 {
  %3 = load ptr, ptr getelementptr inbounds (%struct._zend_executor_globals, ptr @executor_globals, i64 0, i32 60), align 8
  %4 = zext i32 %0 to i64
  %5 = getelementptr inbounds %struct._HashTableIterator, ptr %3, i64 %4
  %6 = icmp ne i32 %0, -1
  tail call void @llvm.assume(i1 %6)
  %7 = load ptr, ptr %5, align 8
  %.not = icmp eq ptr %7, %1
  br i1 %.not, label %74, label %8

8:                                                ; preds = %2
  %9 = getelementptr inbounds i8, ptr %5, i64 12
  %10 = load i32, ptr %9, align 4
  %.not69 = icmp eq i32 %10, %0
  br i1 %.not69, label %34, label %.preheader85

.preheader85:                                     ; preds = %8, %30
  %.06286 = phi i32 [ %32, %30 ], [ %10, %8 ]
  %11 = zext i32 %.06286 to i64
  %12 = getelementptr inbounds %struct._HashTableIterator, ptr %3, i64 %11
  %13 = load ptr, ptr %12, align 8
  %14 = icmp eq ptr %13, %1
  br i1 %14, label %15, label %30

15:                                               ; preds = %.preheader85
  %magicptr = ptrtoint ptr %7 to i64
  switch i64 %magicptr, label %16 [
    i64 0, label %21
    i64 -1, label %21
  ]

16:                                               ; preds = %15
  %17 = getelementptr inbounds i8, ptr %7, i64 10
  %18 = load i8, ptr %17, align 2
  %.not73 = icmp eq i8 %18, -1
  br i1 %.not73, label %21, label %19

19:                                               ; preds = %16
  %20 = add i8 %18, -1
  store i8 %20, ptr %17, align 2
  br label %21

21:                                               ; preds = %15, %15, %19, %16
  %22 = getelementptr inbounds i8, ptr %1, i64 10
  %23 = load i8, ptr %22, align 2
  %.not74 = icmp eq i8 %23, -1
  br i1 %.not74, label %.critedge81, label %24

24:                                               ; preds = %21
  %25 = add nuw i8 %23, 1
  store i8 %25, ptr %22, align 2
  br label %.critedge81

.critedge81:                                      ; preds = %24, %21
  %26 = load ptr, ptr %12, align 8
  store ptr %26, ptr %5, align 8
  %27 = getelementptr inbounds i8, ptr %12, i64 8
  %28 = load i32, ptr %27, align 8
  %29 = getelementptr inbounds i8, ptr %5, i64 8
  store i32 %28, ptr %29, align 8
  tail call fastcc void @zend_hash_remove_iterator_copies(i32 noundef %0)
  br label %74

30:                                               ; preds = %.preheader85
  %31 = getelementptr inbounds i8, ptr %12, i64 12
  %32 = load i32, ptr %31, align 4
  %.not70 = icmp eq i32 %32, %0
  br i1 %.not70, label %33, label %.preheader85

33:                                               ; preds = %30
  tail call fastcc void @zend_hash_remove_iterator_copies(i32 noundef %0)
  %.pre = load ptr, ptr %5, align 8
  br label %34

34:                                               ; preds = %33, %8
  %35 = phi ptr [ %.pre, %33 ], [ %7, %8 ]
  %magicptr82 = ptrtoint ptr %35 to i64
  switch i64 %magicptr82, label %36 [
    i64 0, label %41
    i64 -1, label %41
  ]

36:                                               ; preds = %34
  %37 = getelementptr inbounds i8, ptr %35, i64 10
  %38 = load i8, ptr %37, align 2
  %.not77 = icmp eq i8 %38, -1
  br i1 %.not77, label %41, label %39

39:                                               ; preds = %36
  %40 = add i8 %38, -1
  store i8 %40, ptr %37, align 2
  br label %41

41:                                               ; preds = %34, %34, %39, %36
  %42 = getelementptr inbounds i8, ptr %1, i64 8
  %43 = getelementptr inbounds i8, ptr %1, i64 10
  %44 = load i8, ptr %43, align 2
  %.not78 = icmp eq i8 %44, -1
  br i1 %.not78, label %47, label %45

45:                                               ; preds = %41
  %46 = add nuw i8 %44, 1
  store i8 %46, ptr %43, align 2
  br label %47

47:                                               ; preds = %45, %41
  store ptr %1, ptr %5, align 8
  %48 = getelementptr inbounds i8, ptr %1, i64 36
  %49 = load i32, ptr %48, align 4
  %50 = load i32, ptr %42, align 8
  %51 = and i32 %50, 4
  %.not79 = icmp eq i32 %51, 0
  %52 = getelementptr inbounds i8, ptr %1, i64 24
  %53 = load i32, ptr %52, align 8
  %54 = icmp ult i32 %49, %53
  br i1 %.not79, label %.preheader, label %.preheader83

.preheader83:                                     ; preds = %47
  br i1 %54, label %.lr.ph, label %.critedge

.lr.ph:                                           ; preds = %.preheader83
  %55 = getelementptr inbounds i8, ptr %1, i64 16
  %56 = load ptr, ptr %55, align 8
  %57 = zext i32 %49 to i64
  br label %61

.preheader:                                       ; preds = %47
  br i1 %54, label %.lr.ph91, label %.critedge

.lr.ph91:                                         ; preds = %.preheader
  %58 = getelementptr inbounds i8, ptr %1, i64 16
  %59 = load ptr, ptr %58, align 8
  %60 = zext i32 %49 to i64
  br label %66

61:                                               ; preds = %.lr.ph, %65
  %indvars.iv = phi i64 [ %57, %.lr.ph ], [ %indvars.iv.next, %65 ]
  %62 = getelementptr inbounds %struct._zval_struct, ptr %56, i64 %indvars.iv, i32 1
  %63 = load i8, ptr %62, align 8
  %64 = icmp eq i8 %63, 0
  br i1 %64, label %65, label %.critedge.loopexit104.split.loop.exit

65:                                               ; preds = %61
  %indvars.iv.next = add nuw nsw i64 %indvars.iv, 1
  %lftr.wideiv = trunc i64 %indvars.iv.next to i32
  %exitcond.not = icmp eq i32 %53, %lftr.wideiv
  br i1 %exitcond.not, label %.critedge, label %61

66:                                               ; preds = %.lr.ph91, %70
  %indvars.iv99 = phi i64 [ %60, %.lr.ph91 ], [ %indvars.iv.next100, %70 ]
  %67 = getelementptr inbounds %struct._Bucket, ptr %59, i64 %indvars.iv99, i32 0, i32 1
  %68 = load i8, ptr %67, align 8
  %69 = icmp eq i8 %68, 0
  br i1 %69, label %70, label %.critedge.loopexit.split.loop.exit

70:                                               ; preds = %66
  %indvars.iv.next100 = add nuw nsw i64 %indvars.iv99, 1
  %lftr.wideiv102 = trunc i64 %indvars.iv.next100 to i32
  %exitcond103.not = icmp eq i32 %53, %lftr.wideiv102
  br i1 %exitcond103.not, label %.critedge, label %66

.critedge.loopexit.split.loop.exit:               ; preds = %66
  %71 = trunc i64 %indvars.iv99 to i32
  br label %.critedge

.critedge.loopexit104.split.loop.exit:            ; preds = %61
  %72 = trunc i64 %indvars.iv to i32
  br label %.critedge

.critedge:                                        ; preds = %65, %70, %.critedge.loopexit104.split.loop.exit, %.critedge.loopexit.split.loop.exit, %.preheader83, %.preheader
  %.2 = phi i32 [ %49, %.preheader ], [ %49, %.preheader83 ], [ %71, %.critedge.loopexit.split.loop.exit ], [ %72, %.critedge.loopexit104.split.loop.exit ], [ %53, %70 ], [ %53, %65 ]
  %73 = getelementptr inbounds i8, ptr %5, i64 8
  store i32 %.2, ptr %73, align 8
  br label %74

74:                                               ; preds = %.critedge81, %.critedge, %2
  %75 = getelementptr inbounds i8, ptr %5, i64 8
  %76 = load i32, ptr %75, align 8
  ret i32 %76
}